(S'6e3d12ed3cf1e50846a51b885227f70f'
p1
(ihappydoclib.parseinfo.moduleinfo
ModuleInfo
p2
(dp3
S'_namespaces'
p4
((dp5
(dp6
S'traceREStates'
p7
(ihappydoclib.parseinfo.functioninfo
FunctionInfo
(dp8
g4
((dp9
(dp10
tsS'_exception_info'
p11
(dsS'_parameter_names'
p12
(S'fsa'
p13
S's'
S'trace'
p14
tsS'_parameter_info'
p15
(dp16
g13
(NNNtsS's'
(NNNtsg14
(I1
S'1'
NtssS'_filename'
p17
S'.\\attic.py'
p18
sS'_docstring'
p19
S''
sS'_name'
p20
g7
sS'_parent'
p21
g2
sS'_function_info'
p22
g10
sS'_configuration_values'
p23
(dsS'_class_info'
p24
g9
sS'_comment_info'
p25
(dp26
sS'_comments'
p27
S''
sbstsS'_import_info'
p28
(ihappydoclib.parseinfo.imports
ImportInfo
(dp29
S'_named_imports'
p30
(dsS'_straight_imports'
p31
(lsbsg17
g18
sg19
S''
sg20
S'attic'
sg21
Nsg22
g6
sg23
(dp32
S'include_comments'
p33
I1
sS'cacheFilePrefix'
p34
S'.happydoc.'
p35
sS'useCache'
p36
I1
sS'docStringFormat'
p37
S'StructuredText'
p38
ssg24
g5
sg25
g26
sg27
S''
sbt.